; Function Attrs: nounwind uwtable
define internal i32 @ecdsa_digest_signverify_update(ptr noundef readonly captures(address_is_null) %0, ptr noundef %1, i64 noundef %2) #0 {
  %4 = icmp eq ptr %0, null
  br i1 %4, label %14, label %5

5:                                                ; preds = %3
  %6 = getelementptr inbounds nuw i8, ptr %0, i64 360
  %7 = load ptr, ptr %6, align 8, !tbaa !18
  %8 = icmp eq ptr %7, null
  br i1 %8, label %14, label %9

9:                                                ; preds = %5
  %10 = getelementptr inbounds nuw i8, ptr %0, i64 28
  %11 = load i8, ptr %10, align 4
  %12 = and i8 %11, 1
  %.not = icmp eq i8 %12, 0
  br i1 %.not, label %ecdsa_signverify_message_update.exit, label %14

ecdsa_signverify_message_update.exit:             ; preds = %9
  %13 = tail call i32 @EVP_DigestUpdate(ptr noundef nonnull %7, ptr noundef %1, i64 noundef %2) #8
  br label %14

14:                                               ; preds = %9, %3, %5, %ecdsa_signverify_message_update.exit
  %.0 = phi i32 [ %13, %ecdsa_signverify_message_update.exit ], [ 0, %5 ], [ 0, %3 ], [ 0, %9 ]
  ret i32 %.0
}